; Function Attrs: nounwind uwtable
define hidden range(i32 0, 2) i32 @setStartThreshold(ptr nocapture noundef readonly %0, i32 noundef %1) local_unnamed_addr #0 {
  %.not.i = icmp eq i32 %1, 0
  %..i = select i1 %.not.i, i64 2000000000, i64 1
  %3 = load ptr, ptr %0, align 8
  %4 = getelementptr inbounds i8, ptr %0, i64 16
  %5 = load ptr, ptr %4, align 8
  %6 = tail call i32 @snd_pcm_sw_params_set_start_threshold(ptr noundef %3, ptr noundef %5, i64 noundef %..i) #8
  %7 = icmp slt i32 %6, 0
  br i1 %7, label %14, label %8

8:                                                ; preds = %2
  %9 = load ptr, ptr %0, align 8
  %10 = load ptr, ptr %4, align 8
  %11 = tail call i32 @snd_pcm_sw_params(ptr noundef %9, ptr noundef %10) #8
  %12 = icmp eq i32 %11, 0
  %13 = zext i1 %12 to i32
  br label %14

14:                                               ; preds = %8, %2
  %.1 = phi i32 [ %13, %8 ], [ 0, %2 ]
  ret i32 %.1
}